; Function Attrs: null_pointer_is_valid sspstrong uwtable
define internal i32 @dissect_acse_T_other_mechanism_value(i1 zeroext %0, ptr noundef %1, i32 noundef %2, ptr noundef readonly captures(none) %3, ptr readnone captures(none) %4, i32 %5) #0 {
  %7 = getelementptr inbounds nuw i8, ptr %3, i64 61
  %8 = load i8, ptr %7, align 1, !range !6, !noundef !7
  %9 = trunc nuw i8 %8 to i1
  br i1 %9, label %10, label %20

10:                                               ; preds = %6
  %11 = getelementptr inbounds nuw i8, ptr %3, i64 72
  %12 = load ptr, ptr %11, align 8
  %13 = getelementptr inbounds nuw i8, ptr %3, i64 16
  %14 = load ptr, ptr %13, align 8
  %15 = getelementptr inbounds nuw i8, ptr %3, i64 128
  %16 = load ptr, ptr %15, align 8
  %17 = getelementptr inbounds nuw i8, ptr %3, i64 48
  %18 = load ptr, ptr %17, align 8
  %19 = tail call i32 @call_ber_oid_callback(ptr noundef %12, ptr noundef %1, i32 noundef %2, ptr noundef %14, ptr noundef %16, ptr noundef %18)
  br label %20

20:                                               ; preds = %10, %6
  %.0 = phi i32 [ %19, %10 ], [ %2, %6 ]
  ret i32 %.0
}